target datalayout = "e-m:e-p270:32:32-p271:32:32-p272:64:64-i64:64-i128:128-f80:128-n8:16:32:64-S128"
target triple = "x86_64-unknown-linux-gnu"

%"class.llvh::SMLoc" = type { ptr }
%"class.hermes::irgen::ESTreeIRGen" = type { ptr, %"class.hermes::IRBuilder", %"class.hermes::IRInstrument", ptr, ptr, ptr, ptr, %"class.hermes::ScopedHashTable", %"class.std::shared_ptr", %"class.hermes::Identifier", %"class.hermes::Identifier", %"class.hermes::Identifier", ptr, ptr, %"class.llvh::DenseMap.9" }
%"class.hermes::IRBuilder" = type { ptr, %"class.llvh::ilist_iterator", ptr, %"class.llvh::SMLoc", ptr }
%"class.llvh::ilist_iterator" = type { ptr }
%"class.hermes::IRInstrument" = type { i8 }
%"class.hermes::ScopedHashTable" = type { %"class.llvh::DenseMap", ptr }
%"class.llvh::DenseMap" = type <{ ptr, i32, i32, i32, [4 x i8] }>
%"class.std::shared_ptr" = type { %"class.std::__shared_ptr" }
%"class.std::__shared_ptr" = type { ptr, %"class.std::__shared_count" }
%"class.std::__shared_count" = type { ptr }
%"class.hermes::Identifier" = type { ptr }
%"class.llvh::DenseMap.9" = type <{ ptr, i32, i32, i32, [4 x i8] }>
%"class.llvh::StringRef" = type { ptr, i64 }

@.str.12 = private unnamed_addr constant [7 x i8] c"Symbol\00", align 1
@.str.13 = private unnamed_addr constant [9 x i8] c"iterator\00", align 1

; Function Attrs: mustprogress nounwind uwtable
define hidden noundef ptr @_ZN6hermes5irgen11ESTreeIRGen18emitIteratorSymbolEv(ptr noundef nonnull align 8 dereferenceable(200) %this) #0 align 2 {
entry:
  %this.addr.i9 = alloca ptr, align 8
  %Str.addr.i10 = alloca ptr, align 8
  %this.addr.i = alloca ptr, align 8
  %Str.addr.i = alloca ptr, align 8
  %this.addr = alloca ptr, align 8
  %agg.tmp = alloca %"class.llvh::StringRef", align 8
  %agg.tmp3 = alloca %"class.llvh::StringRef", align 8
  store ptr %this, ptr %this.addr, align 8
  %this1 = load ptr, ptr %this.addr, align 8
  %Builder = getelementptr inbounds %"class.hermes::irgen::ESTreeIRGen", ptr %this1, i32 0, i32 1
  %Builder2 = getelementptr inbounds %"class.hermes::irgen::ESTreeIRGen", ptr %this1, i32 0, i32 1
  store ptr %agg.tmp, ptr %this.addr.i, align 8
  store ptr @.str.12, ptr %Str.addr.i, align 8
  %this1.i = load ptr, ptr %this.addr.i, align 8
  %0 = load ptr, ptr %Str.addr.i, align 8
  store ptr %0, ptr %this1.i, align 8
  %Length.i = getelementptr inbounds %"class.llvh::StringRef", ptr %this1.i, i32 0, i32 1
  %1 = load ptr, ptr %Str.addr.i, align 8
  %tobool.i = icmp ne ptr %1, null
  br i1 %tobool.i, label %cond.true.i, label %cond.false.i

cond.true.i:                                      ; preds = %entry
  %2 = load ptr, ptr %Str.addr.i, align 8
  %call.i = call i64 @strlen(ptr noundef %2) #11
  br label %_ZN4llvh9StringRefC2EPKc.exit

cond.false.i:                                     ; preds = %entry
  br label %_ZN4llvh9StringRefC2EPKc.exit

_ZN4llvh9StringRefC2EPKc.exit:                    ; preds = %cond.false.i, %cond.true.i
  %cond.i = phi i64 [ %call.i, %cond.true.i ], [ 0, %cond.false.i ]
  store i64 %cond.i, ptr %Length.i, align 8
  %3 = getelementptr inbounds { ptr, i64 }, ptr %agg.tmp, i32 0, i32 0
  %4 = load ptr, ptr %3, align 8
  %5 = getelementptr inbounds { ptr, i64 }, ptr %agg.tmp, i32 0, i32 1
  %6 = load i64, ptr %5, align 8
  %call = call noundef ptr @_ZN6hermes9IRBuilder31createTryLoadGlobalPropertyInstEN4llvh9StringRefE(ptr noundef nonnull align 8 dereferenceable(40) %Builder2, ptr %4, i64 %6)
  %7 = icmp eq ptr %call, null
  br i1 %7, label %cast.end, label %cast.notnull

cast.notnull:                                     ; preds = %_ZN4llvh9StringRefC2EPKc.exit
  %add.ptr = getelementptr inbounds i8, ptr %call, i64 16
  br label %cast.end

cast.end:                                         ; preds = %cast.notnull, %_ZN4llvh9StringRefC2EPKc.exit
  %cast.result = phi ptr [ %add.ptr, %cast.notnull ], [ null, %_ZN4llvh9StringRefC2EPKc.exit ]
  store ptr %agg.tmp3, ptr %this.addr.i9, align 8
  store ptr @.str.13, ptr %Str.addr.i10, align 8
  %this1.i11 = load ptr, ptr %this.addr.i9, align 8
  %8 = load ptr, ptr %Str.addr.i10, align 8
  store ptr %8, ptr %this1.i11, align 8
  %Length.i12 = getelementptr inbounds %"class.llvh::StringRef", ptr %this1.i11, i32 0, i32 1
  %9 = load ptr, ptr %Str.addr.i10, align 8
  %tobool.i13 = icmp ne ptr %9, null
  br i1 %tobool.i13, label %cond.true.i16, label %cond.false.i14

cond.true.i16:                                    ; preds = %cast.end
  %10 = load ptr, ptr %Str.addr.i10, align 8
  %call.i17 = call i64 @strlen(ptr noundef %10) #11
  br label %_ZN4llvh9StringRefC2EPKc.exit18

cond.false.i14:                                   ; preds = %cast.end
  br label %_ZN4llvh9StringRefC2EPKc.exit18

_ZN4llvh9StringRefC2EPKc.exit18:                  ; preds = %cond.false.i14, %cond.true.i16
  %cond.i15 = phi i64 [ %call.i17, %cond.true.i16 ], [ 0, %cond.false.i14 ]
  store i64 %cond.i15, ptr %Length.i12, align 8
  %11 = getelementptr inbounds { ptr, i64 }, ptr %agg.tmp3, i32 0, i32 0
  %12 = load ptr, ptr %11, align 8
  %13 = getelementptr inbounds { ptr, i64 }, ptr %agg.tmp3, i32 0, i32 1
  %14 = load i64, ptr %13, align 8
  %call4 = call noundef ptr @_ZN6hermes9IRBuilder22createLoadPropertyInstEPNS_5ValueEN4llvh9StringRefE(ptr noundef nonnull align 8 dereferenceable(40) %Builder, ptr noundef %cast.result, ptr %12, i64 %14)
  %15 = icmp eq ptr %call4, null
  br i1 %15, label %cast.end7, label %cast.notnull5

cast.notnull5:                                    ; preds = %_ZN4llvh9StringRefC2EPKc.exit18
  %add.ptr6 = getelementptr inbounds i8, ptr %call4, i64 16
  br label %cast.end7

cast.end7:                                        ; preds = %cast.notnull5, %_ZN4llvh9StringRefC2EPKc.exit18
  %cast.result8 = phi ptr [ %add.ptr6, %cast.notnull5 ], [ null, %_ZN4llvh9StringRefC2EPKc.exit18 ]
  ret ptr %cast.result8
}