; Function Attrs: mustprogress nounwind uwtable
define hidden noundef ptr @_ZN6hermes5irgen11ESTreeIRGen18emitIteratorSymbolEv(ptr noundef nonnull align 8 dereferenceable(200) %this) local_unnamed_addr #0 align 2 {
entry:
  %Builder = getelementptr inbounds i8, ptr %this, i64 8
  %call = tail call noundef ptr @_ZN6hermes9IRBuilder31createTryLoadGlobalPropertyInstEN4llvh9StringRefE(ptr noundef nonnull align 8 dereferenceable(40) %Builder, ptr nonnull @.str.12, i64 6) #15
  %0 = icmp eq ptr %call, null
  %add.ptr = getelementptr inbounds i8, ptr %call, i64 16
  %spec.select = select i1 %0, ptr null, ptr %add.ptr
  %call4 = tail call noundef ptr @_ZN6hermes9IRBuilder22createLoadPropertyInstEPNS_5ValueEN4llvh9StringRefE(ptr noundef nonnull align 8 dereferenceable(40) %Builder, ptr noundef %spec.select, ptr nonnull @.str.13, i64 8) #15
  %1 = icmp eq ptr %call4, null
  %add.ptr6 = getelementptr inbounds i8, ptr %call4, i64 16
  %spec.select1 = select i1 %1, ptr null, ptr %add.ptr6
  ret ptr %spec.select1
}